ARM GAS  C:\Users\chian\AppData\Local\Temp\ccuaupTt.s 			page 1


   1              		.cpu cortex-m4
   2              		.arch armv7e-m
   3              		.fpu fpv4-sp-d16
   4              		.eabi_attribute 27, 1
   5              		.eabi_attribute 28, 1
   6              		.eabi_attribute 20, 1
   7              		.eabi_attribute 21, 1
   8              		.eabi_attribute 23, 3
   9              		.eabi_attribute 24, 1
  10              		.eabi_attribute 25, 1
  11              		.eabi_attribute 26, 1
  12              		.eabi_attribute 30, 6
  13              		.eabi_attribute 34, 1
  14              		.eabi_attribute 18, 4
  15              		.file	"syscalls.c"
  16              		.text
  17              	.Ltext0:
  18              		.cfi_sections	.debug_frame
  19              		.global	__env
  20              		.section	.bss.__env,"aw",%nobits
  21              		.align	2
  24              	__env:
  25 0000 00000000 		.space	4
  26              		.global	environ
  27              		.section	.data.environ,"aw"
  28              		.align	2
  31              	environ:
  32 0000 00000000 		.word	__env
  33              		.section	.text.initialise_monitor_handles,"ax",%progbits
  34              		.align	1
  35              		.global	initialise_monitor_handles
  36              		.syntax unified
  37              		.thumb
  38              		.thumb_func
  40              	initialise_monitor_handles:
  41              	.LFB25:
  42              		.file 1 "./Src/syscalls.c"
   1:./Src/syscalls.c **** /**
   2:./Src/syscalls.c ****  ******************************************************************************
   3:./Src/syscalls.c ****  * @file      syscalls.c
   4:./Src/syscalls.c ****  * @author    Auto-generated by STM32CubeIDE
   5:./Src/syscalls.c ****  * @brief     STM32CubeIDE Minimal System calls file
   6:./Src/syscalls.c ****  *
   7:./Src/syscalls.c ****  *            For more information about which c-functions
   8:./Src/syscalls.c ****  *            need which of these lowlevel functions
   9:./Src/syscalls.c ****  *            please consult the Newlib libc-manual
  10:./Src/syscalls.c ****  ******************************************************************************
  11:./Src/syscalls.c ****  * @attention
  12:./Src/syscalls.c ****  *
  13:./Src/syscalls.c ****  * <h2><center>&copy; Copyright (c) 2020 STMicroelectronics.
  14:./Src/syscalls.c ****  * All rights reserved.</center></h2>
  15:./Src/syscalls.c ****  *
  16:./Src/syscalls.c ****  * This software component is licensed by ST under BSD 3-Clause license,
  17:./Src/syscalls.c ****  * the "License"; You may not use this file except in compliance with the
  18:./Src/syscalls.c ****  * License. You may obtain a copy of the License at:
  19:./Src/syscalls.c ****  *                        opensource.org/licenses/BSD-3-Clause
  20:./Src/syscalls.c ****  *
ARM GAS  C:\Users\chian\AppData\Local\Temp\ccuaupTt.s 			page 2


  21:./Src/syscalls.c ****  ******************************************************************************
  22:./Src/syscalls.c ****  */
  23:./Src/syscalls.c **** 
  24:./Src/syscalls.c **** /* Includes */
  25:./Src/syscalls.c **** #include <sys/stat.h>
  26:./Src/syscalls.c **** #include <stdlib.h>
  27:./Src/syscalls.c **** #include <errno.h>
  28:./Src/syscalls.c **** #include <stdio.h>
  29:./Src/syscalls.c **** #include <signal.h>
  30:./Src/syscalls.c **** #include <time.h>
  31:./Src/syscalls.c **** #include <sys/time.h>
  32:./Src/syscalls.c **** #include <sys/times.h>
  33:./Src/syscalls.c **** 
  34:./Src/syscalls.c **** /* Variables */
  35:./Src/syscalls.c **** extern int __io_putchar(int ch) __attribute__((weak));
  36:./Src/syscalls.c **** extern int __io_getchar(void) __attribute__((weak));
  37:./Src/syscalls.c **** 
  38:./Src/syscalls.c **** char *__env[1] = { 0 };
  39:./Src/syscalls.c **** char **environ = __env;
  40:./Src/syscalls.c **** 
  41:./Src/syscalls.c **** /* Functions */
  42:./Src/syscalls.c **** void initialise_monitor_handles()
  43:./Src/syscalls.c **** {
  43              		.loc 1 43 1
  44              		.cfi_startproc
  45              		@ args = 0, pretend = 0, frame = 0
  46              		@ frame_needed = 1, uses_anonymous_args = 0
  47              		@ link register save eliminated.
  48 0000 80B4     		push	{r7}
  49              	.LCFI0:
  50              		.cfi_def_cfa_offset 4
  51              		.cfi_offset 7, -4
  52 0002 00AF     		add	r7, sp, #0
  53              	.LCFI1:
  54              		.cfi_def_cfa_register 7
  44:./Src/syscalls.c **** 	
  45:./Src/syscalls.c **** }
  55              		.loc 1 45 1
  56 0004 00BF     		nop
  57 0006 BD46     		mov	sp, r7
  58              	.LCFI2:
  59              		.cfi_def_cfa_register 13
  60              		@ sp needed
  61 0008 5DF8047B 		ldr	r7, [sp], #4
  62              	.LCFI3:
  63              		.cfi_restore 7
  64              		.cfi_def_cfa_offset 0
  65 000c 7047     		bx	lr
  66              		.cfi_endproc
  67              	.LFE25:
  69              		.section	.text._getpid,"ax",%progbits
  70              		.align	1
  71              		.global	_getpid
  72              		.syntax unified
  73              		.thumb
  74              		.thumb_func
  76              	_getpid:
ARM GAS  C:\Users\chian\AppData\Local\Temp\ccuaupTt.s 			page 3


  77              	.LFB26:
  46:./Src/syscalls.c **** 
  47:./Src/syscalls.c **** int _getpid(void)
  48:./Src/syscalls.c **** {
  78              		.loc 1 48 1
  79              		.cfi_startproc
  80              		@ args = 0, pretend = 0, frame = 0
  81              		@ frame_needed = 1, uses_anonymous_args = 0
  82              		@ link register save eliminated.
  83 0000 80B4     		push	{r7}
  84              	.LCFI4:
  85              		.cfi_def_cfa_offset 4
  86              		.cfi_offset 7, -4
  87 0002 00AF     		add	r7, sp, #0
  88              	.LCFI5:
  89              		.cfi_def_cfa_register 7
  49:./Src/syscalls.c **** 	return 1;
  90              		.loc 1 49 9
  91 0004 0123     		movs	r3, #1
  50:./Src/syscalls.c **** }
  92              		.loc 1 50 1
  93 0006 1846     		mov	r0, r3
  94 0008 BD46     		mov	sp, r7
  95              	.LCFI6:
  96              		.cfi_def_cfa_register 13
  97              		@ sp needed
  98 000a 5DF8047B 		ldr	r7, [sp], #4
  99              	.LCFI7:
 100              		.cfi_restore 7
 101              		.cfi_def_cfa_offset 0
 102 000e 7047     		bx	lr
 103              		.cfi_endproc
 104              	.LFE26:
 106              		.section	.text._kill,"ax",%progbits
 107              		.align	1
 108              		.global	_kill
 109              		.syntax unified
 110              		.thumb
 111              		.thumb_func
 113              	_kill:
 114              	.LFB27:
  51:./Src/syscalls.c **** 
  52:./Src/syscalls.c **** int _kill(int pid, int sig)
  53:./Src/syscalls.c **** {
 115              		.loc 1 53 1
 116              		.cfi_startproc
 117              		@ args = 0, pretend = 0, frame = 8
 118              		@ frame_needed = 1, uses_anonymous_args = 0
 119 0000 80B5     		push	{r7, lr}
 120              	.LCFI8:
 121              		.cfi_def_cfa_offset 8
 122              		.cfi_offset 7, -8
 123              		.cfi_offset 14, -4
 124 0002 82B0     		sub	sp, sp, #8
 125              	.LCFI9:
 126              		.cfi_def_cfa_offset 16
 127 0004 00AF     		add	r7, sp, #0
ARM GAS  C:\Users\chian\AppData\Local\Temp\ccuaupTt.s 			page 4


 128              	.LCFI10:
 129              		.cfi_def_cfa_register 7
 130 0006 7860     		str	r0, [r7, #4]
 131 0008 3960     		str	r1, [r7]
  54:./Src/syscalls.c **** 	errno = EINVAL;
 132              		.loc 1 54 2
 133 000a FFF7FEFF 		bl	__errno
 134 000e 0346     		mov	r3, r0
 135              		.loc 1 54 8
 136 0010 1622     		movs	r2, #22
 137 0012 1A60     		str	r2, [r3]
  55:./Src/syscalls.c **** 	return -1;
 138              		.loc 1 55 9
 139 0014 4FF0FF33 		mov	r3, #-1
  56:./Src/syscalls.c **** }
 140              		.loc 1 56 1
 141 0018 1846     		mov	r0, r3
 142 001a 0837     		adds	r7, r7, #8
 143              	.LCFI11:
 144              		.cfi_def_cfa_offset 8
 145 001c BD46     		mov	sp, r7
 146              	.LCFI12:
 147              		.cfi_def_cfa_register 13
 148              		@ sp needed
 149 001e 80BD     		pop	{r7, pc}
 150              		.cfi_endproc
 151              	.LFE27:
 153              		.section	.text._exit,"ax",%progbits
 154              		.align	1
 155              		.global	_exit
 156              		.syntax unified
 157              		.thumb
 158              		.thumb_func
 160              	_exit:
 161              	.LFB28:
  57:./Src/syscalls.c **** 
  58:./Src/syscalls.c **** void _exit (int status)
  59:./Src/syscalls.c **** {
 162              		.loc 1 59 1
 163              		.cfi_startproc
 164              		@ args = 0, pretend = 0, frame = 8
 165              		@ frame_needed = 1, uses_anonymous_args = 0
 166 0000 80B5     		push	{r7, lr}
 167              	.LCFI13:
 168              		.cfi_def_cfa_offset 8
 169              		.cfi_offset 7, -8
 170              		.cfi_offset 14, -4
 171 0002 82B0     		sub	sp, sp, #8
 172              	.LCFI14:
 173              		.cfi_def_cfa_offset 16
 174 0004 00AF     		add	r7, sp, #0
 175              	.LCFI15:
 176              		.cfi_def_cfa_register 7
 177 0006 7860     		str	r0, [r7, #4]
  60:./Src/syscalls.c **** 	_kill(status, -1);
 178              		.loc 1 60 2
 179 0008 4FF0FF31 		mov	r1, #-1
ARM GAS  C:\Users\chian\AppData\Local\Temp\ccuaupTt.s 			page 5


 180 000c 7868     		ldr	r0, [r7, #4]
 181 000e FFF7FEFF 		bl	_kill
 182              	.L7:
  61:./Src/syscalls.c **** 	while (1) {}		/* Make sure we hang here */
 183              		.loc 1 61 8 discriminator 1
 184 0012 FEE7     		b	.L7
 185              		.cfi_endproc
 186              	.LFE28:
 188              		.section	.text._read,"ax",%progbits
 189              		.align	1
 190              		.weak	_read
 191              		.syntax unified
 192              		.thumb
 193              		.thumb_func
 195              	_read:
 196              	.LFB29:
  62:./Src/syscalls.c **** }
  63:./Src/syscalls.c **** 
  64:./Src/syscalls.c **** __attribute__((weak)) int _read(int file, char *ptr, int len)
  65:./Src/syscalls.c **** {
 197              		.loc 1 65 1
 198              		.cfi_startproc
 199              		@ args = 0, pretend = 0, frame = 24
 200              		@ frame_needed = 1, uses_anonymous_args = 0
 201 0000 80B5     		push	{r7, lr}
 202              	.LCFI16:
 203              		.cfi_def_cfa_offset 8
 204              		.cfi_offset 7, -8
 205              		.cfi_offset 14, -4
 206 0002 86B0     		sub	sp, sp, #24
 207              	.LCFI17:
 208              		.cfi_def_cfa_offset 32
 209 0004 00AF     		add	r7, sp, #0
 210              	.LCFI18:
 211              		.cfi_def_cfa_register 7
 212 0006 F860     		str	r0, [r7, #12]
 213 0008 B960     		str	r1, [r7, #8]
 214 000a 7A60     		str	r2, [r7, #4]
  66:./Src/syscalls.c **** 	int DataIdx;
  67:./Src/syscalls.c **** 
  68:./Src/syscalls.c **** 	for (DataIdx = 0; DataIdx < len; DataIdx++)
 215              		.loc 1 68 15
 216 000c 0023     		movs	r3, #0
 217 000e 7B61     		str	r3, [r7, #20]
 218              		.loc 1 68 2
 219 0010 0AE0     		b	.L9
 220              	.L10:
  69:./Src/syscalls.c **** 	{
  70:./Src/syscalls.c **** 		*ptr++ = __io_getchar();
 221              		.loc 1 70 12 discriminator 3
 222 0012 FFF7FEFF 		bl	__io_getchar
 223 0016 0146     		mov	r1, r0
 224              		.loc 1 70 7 discriminator 3
 225 0018 BB68     		ldr	r3, [r7, #8]
 226 001a 5A1C     		adds	r2, r3, #1
 227 001c BA60     		str	r2, [r7, #8]
 228              		.loc 1 70 10 discriminator 3
ARM GAS  C:\Users\chian\AppData\Local\Temp\ccuaupTt.s 			page 6


 229 001e CAB2     		uxtb	r2, r1
 230 0020 1A70     		strb	r2, [r3]
  68:./Src/syscalls.c **** 	{
 231              		.loc 1 68 42 discriminator 3
 232 0022 7B69     		ldr	r3, [r7, #20]
 233 0024 0133     		adds	r3, r3, #1
 234 0026 7B61     		str	r3, [r7, #20]
 235              	.L9:
  68:./Src/syscalls.c **** 	{
 236              		.loc 1 68 2 discriminator 1
 237 0028 7A69     		ldr	r2, [r7, #20]
 238 002a 7B68     		ldr	r3, [r7, #4]
 239 002c 9A42     		cmp	r2, r3
 240 002e F0DB     		blt	.L10
  71:./Src/syscalls.c **** 	}
  72:./Src/syscalls.c **** 
  73:./Src/syscalls.c **** 	return len;
 241              		.loc 1 73 9
 242 0030 7B68     		ldr	r3, [r7, #4]
  74:./Src/syscalls.c **** }
 243              		.loc 1 74 1
 244 0032 1846     		mov	r0, r3
 245 0034 1837     		adds	r7, r7, #24
 246              	.LCFI19:
 247              		.cfi_def_cfa_offset 8
 248 0036 BD46     		mov	sp, r7
 249              	.LCFI20:
 250              		.cfi_def_cfa_register 13
 251              		@ sp needed
 252 0038 80BD     		pop	{r7, pc}
 253              		.cfi_endproc
 254              	.LFE29:
 256              		.section	.text._write,"ax",%progbits
 257              		.align	1
 258              		.weak	_write
 259              		.syntax unified
 260              		.thumb
 261              		.thumb_func
 263              	_write:
 264              	.LFB30:
  75:./Src/syscalls.c **** 
  76:./Src/syscalls.c **** __attribute__((weak)) int _write(int file, char *ptr, int len)
  77:./Src/syscalls.c **** {
 265              		.loc 1 77 1
 266              		.cfi_startproc
 267              		@ args = 0, pretend = 0, frame = 24
 268              		@ frame_needed = 1, uses_anonymous_args = 0
 269 0000 80B5     		push	{r7, lr}
 270              	.LCFI21:
 271              		.cfi_def_cfa_offset 8
 272              		.cfi_offset 7, -8
 273              		.cfi_offset 14, -4
 274 0002 86B0     		sub	sp, sp, #24
 275              	.LCFI22:
 276              		.cfi_def_cfa_offset 32
 277 0004 00AF     		add	r7, sp, #0
 278              	.LCFI23:
ARM GAS  C:\Users\chian\AppData\Local\Temp\ccuaupTt.s 			page 7


 279              		.cfi_def_cfa_register 7
 280 0006 F860     		str	r0, [r7, #12]
 281 0008 B960     		str	r1, [r7, #8]
 282 000a 7A60     		str	r2, [r7, #4]
  78:./Src/syscalls.c **** 	int DataIdx;
  79:./Src/syscalls.c **** 
  80:./Src/syscalls.c **** 	for (DataIdx = 0; DataIdx < len; DataIdx++)
 283              		.loc 1 80 15
 284 000c 0023     		movs	r3, #0
 285 000e 7B61     		str	r3, [r7, #20]
 286              		.loc 1 80 2
 287 0010 09E0     		b	.L13
 288              	.L14:
  81:./Src/syscalls.c **** 	{
  82:./Src/syscalls.c **** 		__io_putchar(*ptr++);
 289              		.loc 1 82 20 discriminator 3
 290 0012 BB68     		ldr	r3, [r7, #8]
 291 0014 5A1C     		adds	r2, r3, #1
 292 0016 BA60     		str	r2, [r7, #8]
 293              		.loc 1 82 16 discriminator 3
 294 0018 1B78     		ldrb	r3, [r3]	@ zero_extendqisi2
 295              		.loc 1 82 3 discriminator 3
 296 001a 1846     		mov	r0, r3
 297 001c FFF7FEFF 		bl	__io_putchar
  80:./Src/syscalls.c **** 	{
 298              		.loc 1 80 42 discriminator 3
 299 0020 7B69     		ldr	r3, [r7, #20]
 300 0022 0133     		adds	r3, r3, #1
 301 0024 7B61     		str	r3, [r7, #20]
 302              	.L13:
  80:./Src/syscalls.c **** 	{
 303              		.loc 1 80 2 discriminator 1
 304 0026 7A69     		ldr	r2, [r7, #20]
 305 0028 7B68     		ldr	r3, [r7, #4]
 306 002a 9A42     		cmp	r2, r3
 307 002c F1DB     		blt	.L14
  83:./Src/syscalls.c **** 	}
  84:./Src/syscalls.c **** 	return len;
 308              		.loc 1 84 9
 309 002e 7B68     		ldr	r3, [r7, #4]
  85:./Src/syscalls.c **** }
 310              		.loc 1 85 1
 311 0030 1846     		mov	r0, r3
 312 0032 1837     		adds	r7, r7, #24
 313              	.LCFI24:
 314              		.cfi_def_cfa_offset 8
 315 0034 BD46     		mov	sp, r7
 316              	.LCFI25:
 317              		.cfi_def_cfa_register 13
 318              		@ sp needed
 319 0036 80BD     		pop	{r7, pc}
 320              		.cfi_endproc
 321              	.LFE30:
 323              		.section	.text._close,"ax",%progbits
 324              		.align	1
 325              		.global	_close
 326              		.syntax unified
ARM GAS  C:\Users\chian\AppData\Local\Temp\ccuaupTt.s 			page 8


 327              		.thumb
 328              		.thumb_func
 330              	_close:
 331              	.LFB31:
  86:./Src/syscalls.c **** 
  87:./Src/syscalls.c **** int _close(int file)
  88:./Src/syscalls.c **** {
 332              		.loc 1 88 1
 333              		.cfi_startproc
 334              		@ args = 0, pretend = 0, frame = 8
 335              		@ frame_needed = 1, uses_anonymous_args = 0
 336              		@ link register save eliminated.
 337 0000 80B4     		push	{r7}
 338              	.LCFI26:
 339              		.cfi_def_cfa_offset 4
 340              		.cfi_offset 7, -4
 341 0002 83B0     		sub	sp, sp, #12
 342              	.LCFI27:
 343              		.cfi_def_cfa_offset 16
 344 0004 00AF     		add	r7, sp, #0
 345              	.LCFI28:
 346              		.cfi_def_cfa_register 7
 347 0006 7860     		str	r0, [r7, #4]
  89:./Src/syscalls.c **** 	return -1;
 348              		.loc 1 89 9
 349 0008 4FF0FF33 		mov	r3, #-1
  90:./Src/syscalls.c **** }
 350              		.loc 1 90 1
 351 000c 1846     		mov	r0, r3
 352 000e 0C37     		adds	r7, r7, #12
 353              	.LCFI29:
 354              		.cfi_def_cfa_offset 4
 355 0010 BD46     		mov	sp, r7
 356              	.LCFI30:
 357              		.cfi_def_cfa_register 13
 358              		@ sp needed
 359 0012 5DF8047B 		ldr	r7, [sp], #4
 360              	.LCFI31:
 361              		.cfi_restore 7
 362              		.cfi_def_cfa_offset 0
 363 0016 7047     		bx	lr
 364              		.cfi_endproc
 365              	.LFE31:
 367              		.section	.text._fstat,"ax",%progbits
 368              		.align	1
 369              		.global	_fstat
 370              		.syntax unified
 371              		.thumb
 372              		.thumb_func
 374              	_fstat:
 375              	.LFB32:
  91:./Src/syscalls.c **** 
  92:./Src/syscalls.c **** 
  93:./Src/syscalls.c **** int _fstat(int file, struct stat *st)
  94:./Src/syscalls.c **** {
 376              		.loc 1 94 1
 377              		.cfi_startproc
ARM GAS  C:\Users\chian\AppData\Local\Temp\ccuaupTt.s 			page 9


 378              		@ args = 0, pretend = 0, frame = 8
 379              		@ frame_needed = 1, uses_anonymous_args = 0
 380              		@ link register save eliminated.
 381 0000 80B4     		push	{r7}
 382              	.LCFI32:
 383              		.cfi_def_cfa_offset 4
 384              		.cfi_offset 7, -4
 385 0002 83B0     		sub	sp, sp, #12
 386              	.LCFI33:
 387              		.cfi_def_cfa_offset 16
 388 0004 00AF     		add	r7, sp, #0
 389              	.LCFI34:
 390              		.cfi_def_cfa_register 7
 391 0006 7860     		str	r0, [r7, #4]
 392 0008 3960     		str	r1, [r7]
  95:./Src/syscalls.c **** 	st->st_mode = S_IFCHR;
 393              		.loc 1 95 14
 394 000a 3B68     		ldr	r3, [r7]
 395 000c 4FF40052 		mov	r2, #8192
 396 0010 5A60     		str	r2, [r3, #4]
  96:./Src/syscalls.c **** 	return 0;
 397              		.loc 1 96 9
 398 0012 0023     		movs	r3, #0
  97:./Src/syscalls.c **** }
 399              		.loc 1 97 1
 400 0014 1846     		mov	r0, r3
 401 0016 0C37     		adds	r7, r7, #12
 402              	.LCFI35:
 403              		.cfi_def_cfa_offset 4
 404 0018 BD46     		mov	sp, r7
 405              	.LCFI36:
 406              		.cfi_def_cfa_register 13
 407              		@ sp needed
 408 001a 5DF8047B 		ldr	r7, [sp], #4
 409              	.LCFI37:
 410              		.cfi_restore 7
 411              		.cfi_def_cfa_offset 0
 412 001e 7047     		bx	lr
 413              		.cfi_endproc
 414              	.LFE32:
 416              		.section	.text._isatty,"ax",%progbits
 417              		.align	1
 418              		.global	_isatty
 419              		.syntax unified
 420              		.thumb
 421              		.thumb_func
 423              	_isatty:
 424              	.LFB33:
  98:./Src/syscalls.c **** 
  99:./Src/syscalls.c **** int _isatty(int file)
 100:./Src/syscalls.c **** {
 425              		.loc 1 100 1
 426              		.cfi_startproc
 427              		@ args = 0, pretend = 0, frame = 8
 428              		@ frame_needed = 1, uses_anonymous_args = 0
 429              		@ link register save eliminated.
 430 0000 80B4     		push	{r7}
ARM GAS  C:\Users\chian\AppData\Local\Temp\ccuaupTt.s 			page 10


 431              	.LCFI38:
 432              		.cfi_def_cfa_offset 4
 433              		.cfi_offset 7, -4
 434 0002 83B0     		sub	sp, sp, #12
 435              	.LCFI39:
 436              		.cfi_def_cfa_offset 16
 437 0004 00AF     		add	r7, sp, #0
 438              	.LCFI40:
 439              		.cfi_def_cfa_register 7
 440 0006 7860     		str	r0, [r7, #4]
 101:./Src/syscalls.c **** 	return 1;
 441              		.loc 1 101 9
 442 0008 0123     		movs	r3, #1
 102:./Src/syscalls.c **** }
 443              		.loc 1 102 1
 444 000a 1846     		mov	r0, r3
 445 000c 0C37     		adds	r7, r7, #12
 446              	.LCFI41:
 447              		.cfi_def_cfa_offset 4
 448 000e BD46     		mov	sp, r7
 449              	.LCFI42:
 450              		.cfi_def_cfa_register 13
 451              		@ sp needed
 452 0010 5DF8047B 		ldr	r7, [sp], #4
 453              	.LCFI43:
 454              		.cfi_restore 7
 455              		.cfi_def_cfa_offset 0
 456 0014 7047     		bx	lr
 457              		.cfi_endproc
 458              	.LFE33:
 460              		.section	.text._lseek,"ax",%progbits
 461              		.align	1
 462              		.global	_lseek
 463              		.syntax unified
 464              		.thumb
 465              		.thumb_func
 467              	_lseek:
 468              	.LFB34:
 103:./Src/syscalls.c **** 
 104:./Src/syscalls.c **** int _lseek(int file, int ptr, int dir)
 105:./Src/syscalls.c **** {
 469              		.loc 1 105 1
 470              		.cfi_startproc
 471              		@ args = 0, pretend = 0, frame = 16
 472              		@ frame_needed = 1, uses_anonymous_args = 0
 473              		@ link register save eliminated.
 474 0000 80B4     		push	{r7}
 475              	.LCFI44:
 476              		.cfi_def_cfa_offset 4
 477              		.cfi_offset 7, -4
 478 0002 85B0     		sub	sp, sp, #20
 479              	.LCFI45:
 480              		.cfi_def_cfa_offset 24
 481 0004 00AF     		add	r7, sp, #0
 482              	.LCFI46:
 483              		.cfi_def_cfa_register 7
 484 0006 F860     		str	r0, [r7, #12]
ARM GAS  C:\Users\chian\AppData\Local\Temp\ccuaupTt.s 			page 11


 485 0008 B960     		str	r1, [r7, #8]
 486 000a 7A60     		str	r2, [r7, #4]
 106:./Src/syscalls.c **** 	return 0;
 487              		.loc 1 106 9
 488 000c 0023     		movs	r3, #0
 107:./Src/syscalls.c **** }
 489              		.loc 1 107 1
 490 000e 1846     		mov	r0, r3
 491 0010 1437     		adds	r7, r7, #20
 492              	.LCFI47:
 493              		.cfi_def_cfa_offset 4
 494 0012 BD46     		mov	sp, r7
 495              	.LCFI48:
 496              		.cfi_def_cfa_register 13
 497              		@ sp needed
 498 0014 5DF8047B 		ldr	r7, [sp], #4
 499              	.LCFI49:
 500              		.cfi_restore 7
 501              		.cfi_def_cfa_offset 0
 502 0018 7047     		bx	lr
 503              		.cfi_endproc
 504              	.LFE34:
 506              		.section	.text._open,"ax",%progbits
 507              		.align	1
 508              		.global	_open
 509              		.syntax unified
 510              		.thumb
 511              		.thumb_func
 513              	_open:
 514              	.LFB35:
 108:./Src/syscalls.c **** 
 109:./Src/syscalls.c **** int _open(char *path, int flags, ...)
 110:./Src/syscalls.c **** {
 515              		.loc 1 110 1
 516              		.cfi_startproc
 517              		@ args = 4, pretend = 12, frame = 8
 518              		@ frame_needed = 1, uses_anonymous_args = 1
 519              		@ link register save eliminated.
 520 0000 0EB4     		push	{r1, r2, r3}
 521              	.LCFI50:
 522              		.cfi_def_cfa_offset 12
 523              		.cfi_offset 1, -12
 524              		.cfi_offset 2, -8
 525              		.cfi_offset 3, -4
 526 0002 80B4     		push	{r7}
 527              	.LCFI51:
 528              		.cfi_def_cfa_offset 16
 529              		.cfi_offset 7, -16
 530 0004 82B0     		sub	sp, sp, #8
 531              	.LCFI52:
 532              		.cfi_def_cfa_offset 24
 533 0006 00AF     		add	r7, sp, #0
 534              	.LCFI53:
 535              		.cfi_def_cfa_register 7
 536 0008 7860     		str	r0, [r7, #4]
 111:./Src/syscalls.c **** 	/* Pretend like we always fail */
 112:./Src/syscalls.c **** 	return -1;
ARM GAS  C:\Users\chian\AppData\Local\Temp\ccuaupTt.s 			page 12


 537              		.loc 1 112 9
 538 000a 4FF0FF33 		mov	r3, #-1
 113:./Src/syscalls.c **** }
 539              		.loc 1 113 1
 540 000e 1846     		mov	r0, r3
 541 0010 0837     		adds	r7, r7, #8
 542              	.LCFI54:
 543              		.cfi_def_cfa_offset 16
 544 0012 BD46     		mov	sp, r7
 545              	.LCFI55:
 546              		.cfi_def_cfa_register 13
 547              		@ sp needed
 548 0014 5DF8047B 		ldr	r7, [sp], #4
 549              	.LCFI56:
 550              		.cfi_restore 7
 551              		.cfi_def_cfa_offset 12
 552 0018 03B0     		add	sp, sp, #12
 553              	.LCFI57:
 554              		.cfi_restore 3
 555              		.cfi_restore 2
 556              		.cfi_restore 1
 557              		.cfi_def_cfa_offset 0
 558 001a 7047     		bx	lr
 559              		.cfi_endproc
 560              	.LFE35:
 562              		.section	.text._wait,"ax",%progbits
 563              		.align	1
 564              		.global	_wait
 565              		.syntax unified
 566              		.thumb
 567              		.thumb_func
 569              	_wait:
 570              	.LFB36:
 114:./Src/syscalls.c **** 
 115:./Src/syscalls.c **** int _wait(int *status)
 116:./Src/syscalls.c **** {
 571              		.loc 1 116 1
 572              		.cfi_startproc
 573              		@ args = 0, pretend = 0, frame = 8
 574              		@ frame_needed = 1, uses_anonymous_args = 0
 575 0000 80B5     		push	{r7, lr}
 576              	.LCFI58:
 577              		.cfi_def_cfa_offset 8
 578              		.cfi_offset 7, -8
 579              		.cfi_offset 14, -4
 580 0002 82B0     		sub	sp, sp, #8
 581              	.LCFI59:
 582              		.cfi_def_cfa_offset 16
 583 0004 00AF     		add	r7, sp, #0
 584              	.LCFI60:
 585              		.cfi_def_cfa_register 7
 586 0006 7860     		str	r0, [r7, #4]
 117:./Src/syscalls.c **** 	errno = ECHILD;
 587              		.loc 1 117 2
 588 0008 FFF7FEFF 		bl	__errno
 589 000c 0346     		mov	r3, r0
 590              		.loc 1 117 8
ARM GAS  C:\Users\chian\AppData\Local\Temp\ccuaupTt.s 			page 13


 591 000e 0A22     		movs	r2, #10
 592 0010 1A60     		str	r2, [r3]
 118:./Src/syscalls.c **** 	return -1;
 593              		.loc 1 118 9
 594 0012 4FF0FF33 		mov	r3, #-1
 119:./Src/syscalls.c **** }
 595              		.loc 1 119 1
 596 0016 1846     		mov	r0, r3
 597 0018 0837     		adds	r7, r7, #8
 598              	.LCFI61:
 599              		.cfi_def_cfa_offset 8
 600 001a BD46     		mov	sp, r7
 601              	.LCFI62:
 602              		.cfi_def_cfa_register 13
 603              		@ sp needed
 604 001c 80BD     		pop	{r7, pc}
 605              		.cfi_endproc
 606              	.LFE36:
 608              		.section	.text._unlink,"ax",%progbits
 609              		.align	1
 610              		.global	_unlink
 611              		.syntax unified
 612              		.thumb
 613              		.thumb_func
 615              	_unlink:
 616              	.LFB37:
 120:./Src/syscalls.c **** 
 121:./Src/syscalls.c **** int _unlink(char *name)
 122:./Src/syscalls.c **** {
 617              		.loc 1 122 1
 618              		.cfi_startproc
 619              		@ args = 0, pretend = 0, frame = 8
 620              		@ frame_needed = 1, uses_anonymous_args = 0
 621 0000 80B5     		push	{r7, lr}
 622              	.LCFI63:
 623              		.cfi_def_cfa_offset 8
 624              		.cfi_offset 7, -8
 625              		.cfi_offset 14, -4
 626 0002 82B0     		sub	sp, sp, #8
 627              	.LCFI64:
 628              		.cfi_def_cfa_offset 16
 629 0004 00AF     		add	r7, sp, #0
 630              	.LCFI65:
 631              		.cfi_def_cfa_register 7
 632 0006 7860     		str	r0, [r7, #4]
 123:./Src/syscalls.c **** 	errno = ENOENT;
 633              		.loc 1 123 2
 634 0008 FFF7FEFF 		bl	__errno
 635 000c 0346     		mov	r3, r0
 636              		.loc 1 123 8
 637 000e 0222     		movs	r2, #2
 638 0010 1A60     		str	r2, [r3]
 124:./Src/syscalls.c **** 	return -1;
 639              		.loc 1 124 9
 640 0012 4FF0FF33 		mov	r3, #-1
 125:./Src/syscalls.c **** }
 641              		.loc 1 125 1
ARM GAS  C:\Users\chian\AppData\Local\Temp\ccuaupTt.s 			page 14


 642 0016 1846     		mov	r0, r3
 643 0018 0837     		adds	r7, r7, #8
 644              	.LCFI66:
 645              		.cfi_def_cfa_offset 8
 646 001a BD46     		mov	sp, r7
 647              	.LCFI67:
 648              		.cfi_def_cfa_register 13
 649              		@ sp needed
 650 001c 80BD     		pop	{r7, pc}
 651              		.cfi_endproc
 652              	.LFE37:
 654              		.section	.text._times,"ax",%progbits
 655              		.align	1
 656              		.global	_times
 657              		.syntax unified
 658              		.thumb
 659              		.thumb_func
 661              	_times:
 662              	.LFB38:
 126:./Src/syscalls.c **** 
 127:./Src/syscalls.c **** int _times(struct tms *buf)
 128:./Src/syscalls.c **** {
 663              		.loc 1 128 1
 664              		.cfi_startproc
 665              		@ args = 0, pretend = 0, frame = 8
 666              		@ frame_needed = 1, uses_anonymous_args = 0
 667              		@ link register save eliminated.
 668 0000 80B4     		push	{r7}
 669              	.LCFI68:
 670              		.cfi_def_cfa_offset 4
 671              		.cfi_offset 7, -4
 672 0002 83B0     		sub	sp, sp, #12
 673              	.LCFI69:
 674              		.cfi_def_cfa_offset 16
 675 0004 00AF     		add	r7, sp, #0
 676              	.LCFI70:
 677              		.cfi_def_cfa_register 7
 678 0006 7860     		str	r0, [r7, #4]
 129:./Src/syscalls.c **** 	return -1;
 679              		.loc 1 129 9
 680 0008 4FF0FF33 		mov	r3, #-1
 130:./Src/syscalls.c **** }
 681              		.loc 1 130 1
 682 000c 1846     		mov	r0, r3
 683 000e 0C37     		adds	r7, r7, #12
 684              	.LCFI71:
 685              		.cfi_def_cfa_offset 4
 686 0010 BD46     		mov	sp, r7
 687              	.LCFI72:
 688              		.cfi_def_cfa_register 13
 689              		@ sp needed
 690 0012 5DF8047B 		ldr	r7, [sp], #4
 691              	.LCFI73:
 692              		.cfi_restore 7
 693              		.cfi_def_cfa_offset 0
 694 0016 7047     		bx	lr
 695              		.cfi_endproc
ARM GAS  C:\Users\chian\AppData\Local\Temp\ccuaupTt.s 			page 15


 696              	.LFE38:
 698              		.section	.text._stat,"ax",%progbits
 699              		.align	1
 700              		.global	_stat
 701              		.syntax unified
 702              		.thumb
 703              		.thumb_func
 705              	_stat:
 706              	.LFB39:
 131:./Src/syscalls.c **** 
 132:./Src/syscalls.c **** int _stat(char *file, struct stat *st)
 133:./Src/syscalls.c **** {
 707              		.loc 1 133 1
 708              		.cfi_startproc
 709              		@ args = 0, pretend = 0, frame = 8
 710              		@ frame_needed = 1, uses_anonymous_args = 0
 711              		@ link register save eliminated.
 712 0000 80B4     		push	{r7}
 713              	.LCFI74:
 714              		.cfi_def_cfa_offset 4
 715              		.cfi_offset 7, -4
 716 0002 83B0     		sub	sp, sp, #12
 717              	.LCFI75:
 718              		.cfi_def_cfa_offset 16
 719 0004 00AF     		add	r7, sp, #0
 720              	.LCFI76:
 721              		.cfi_def_cfa_register 7
 722 0006 7860     		str	r0, [r7, #4]
 723 0008 3960     		str	r1, [r7]
 134:./Src/syscalls.c **** 	st->st_mode = S_IFCHR;
 724              		.loc 1 134 14
 725 000a 3B68     		ldr	r3, [r7]
 726 000c 4FF40052 		mov	r2, #8192
 727 0010 5A60     		str	r2, [r3, #4]
 135:./Src/syscalls.c **** 	return 0;
 728              		.loc 1 135 9
 729 0012 0023     		movs	r3, #0
 136:./Src/syscalls.c **** }
 730              		.loc 1 136 1
 731 0014 1846     		mov	r0, r3
 732 0016 0C37     		adds	r7, r7, #12
 733              	.LCFI77:
 734              		.cfi_def_cfa_offset 4
 735 0018 BD46     		mov	sp, r7
 736              	.LCFI78:
 737              		.cfi_def_cfa_register 13
 738              		@ sp needed
 739 001a 5DF8047B 		ldr	r7, [sp], #4
 740              	.LCFI79:
 741              		.cfi_restore 7
 742              		.cfi_def_cfa_offset 0
 743 001e 7047     		bx	lr
 744              		.cfi_endproc
 745              	.LFE39:
 747              		.section	.text._link,"ax",%progbits
 748              		.align	1
 749              		.global	_link
ARM GAS  C:\Users\chian\AppData\Local\Temp\ccuaupTt.s 			page 16


 750              		.syntax unified
 751              		.thumb
 752              		.thumb_func
 754              	_link:
 755              	.LFB40:
 137:./Src/syscalls.c **** 
 138:./Src/syscalls.c **** int _link(char *old, char *new)
 139:./Src/syscalls.c **** {
 756              		.loc 1 139 1
 757              		.cfi_startproc
 758              		@ args = 0, pretend = 0, frame = 8
 759              		@ frame_needed = 1, uses_anonymous_args = 0
 760 0000 80B5     		push	{r7, lr}
 761              	.LCFI80:
 762              		.cfi_def_cfa_offset 8
 763              		.cfi_offset 7, -8
 764              		.cfi_offset 14, -4
 765 0002 82B0     		sub	sp, sp, #8
 766              	.LCFI81:
 767              		.cfi_def_cfa_offset 16
 768 0004 00AF     		add	r7, sp, #0
 769              	.LCFI82:
 770              		.cfi_def_cfa_register 7
 771 0006 7860     		str	r0, [r7, #4]
 772 0008 3960     		str	r1, [r7]
 140:./Src/syscalls.c **** 	errno = EMLINK;
 773              		.loc 1 140 2
 774 000a FFF7FEFF 		bl	__errno
 775 000e 0346     		mov	r3, r0
 776              		.loc 1 140 8
 777 0010 1F22     		movs	r2, #31
 778 0012 1A60     		str	r2, [r3]
 141:./Src/syscalls.c **** 	return -1;
 779              		.loc 1 141 9
 780 0014 4FF0FF33 		mov	r3, #-1
 142:./Src/syscalls.c **** }
 781              		.loc 1 142 1
 782 0018 1846     		mov	r0, r3
 783 001a 0837     		adds	r7, r7, #8
 784              	.LCFI83:
 785              		.cfi_def_cfa_offset 8
 786 001c BD46     		mov	sp, r7
 787              	.LCFI84:
 788              		.cfi_def_cfa_register 13
 789              		@ sp needed
 790 001e 80BD     		pop	{r7, pc}
 791              		.cfi_endproc
 792              	.LFE40:
 794              		.section	.text._fork,"ax",%progbits
 795              		.align	1
 796              		.global	_fork
 797              		.syntax unified
 798              		.thumb
 799              		.thumb_func
 801              	_fork:
 802              	.LFB41:
 143:./Src/syscalls.c **** 
ARM GAS  C:\Users\chian\AppData\Local\Temp\ccuaupTt.s 			page 17


 144:./Src/syscalls.c **** int _fork(void)
 145:./Src/syscalls.c **** {
 803              		.loc 1 145 1
 804              		.cfi_startproc
 805              		@ args = 0, pretend = 0, frame = 0
 806              		@ frame_needed = 1, uses_anonymous_args = 0
 807 0000 80B5     		push	{r7, lr}
 808              	.LCFI85:
 809              		.cfi_def_cfa_offset 8
 810              		.cfi_offset 7, -8
 811              		.cfi_offset 14, -4
 812 0002 00AF     		add	r7, sp, #0
 813              	.LCFI86:
 814              		.cfi_def_cfa_register 7
 146:./Src/syscalls.c **** 	errno = EAGAIN;
 815              		.loc 1 146 2
 816 0004 FFF7FEFF 		bl	__errno
 817 0008 0346     		mov	r3, r0
 818              		.loc 1 146 8
 819 000a 0B22     		movs	r2, #11
 820 000c 1A60     		str	r2, [r3]
 147:./Src/syscalls.c **** 	return -1;
 821              		.loc 1 147 9
 822 000e 4FF0FF33 		mov	r3, #-1
 148:./Src/syscalls.c **** }
 823              		.loc 1 148 1
 824 0012 1846     		mov	r0, r3
 825 0014 80BD     		pop	{r7, pc}
 826              		.cfi_endproc
 827              	.LFE41:
 829              		.section	.text._execve,"ax",%progbits
 830              		.align	1
 831              		.global	_execve
 832              		.syntax unified
 833              		.thumb
 834              		.thumb_func
 836              	_execve:
 837              	.LFB42:
 149:./Src/syscalls.c **** 
 150:./Src/syscalls.c **** int _execve(char *name, char **argv, char **env)
 151:./Src/syscalls.c **** {
 838              		.loc 1 151 1
 839              		.cfi_startproc
 840              		@ args = 0, pretend = 0, frame = 16
 841              		@ frame_needed = 1, uses_anonymous_args = 0
 842 0000 80B5     		push	{r7, lr}
 843              	.LCFI87:
 844              		.cfi_def_cfa_offset 8
 845              		.cfi_offset 7, -8
 846              		.cfi_offset 14, -4
 847 0002 84B0     		sub	sp, sp, #16
 848              	.LCFI88:
 849              		.cfi_def_cfa_offset 24
 850 0004 00AF     		add	r7, sp, #0
 851              	.LCFI89:
 852              		.cfi_def_cfa_register 7
 853 0006 F860     		str	r0, [r7, #12]
ARM GAS  C:\Users\chian\AppData\Local\Temp\ccuaupTt.s 			page 18


 854 0008 B960     		str	r1, [r7, #8]
 855 000a 7A60     		str	r2, [r7, #4]
 152:./Src/syscalls.c **** 	errno = ENOMEM;
 856              		.loc 1 152 2
 857 000c FFF7FEFF 		bl	__errno
 858 0010 0346     		mov	r3, r0
 859              		.loc 1 152 8
 860 0012 0C22     		movs	r2, #12
 861 0014 1A60     		str	r2, [r3]
 153:./Src/syscalls.c **** 	return -1;
 862              		.loc 1 153 9
 863 0016 4FF0FF33 		mov	r3, #-1
 154:./Src/syscalls.c **** }
 864              		.loc 1 154 1
 865 001a 1846     		mov	r0, r3
 866 001c 1037     		adds	r7, r7, #16
 867              	.LCFI90:
 868              		.cfi_def_cfa_offset 8
 869 001e BD46     		mov	sp, r7
 870              	.LCFI91:
 871              		.cfi_def_cfa_register 13
 872              		@ sp needed
 873 0020 80BD     		pop	{r7, pc}
 874              		.cfi_endproc
 875              	.LFE42:
 877              		.weak	__io_putchar
 878              		.weak	__io_getchar
 879              		.text
 880              	.Letext0:
 881              		.file 2 "c:\\program files (x86)\\gnu arm embedded toolchain\\10 2021.10\\arm-none-eabi\\include\\
 882              		.file 3 "c:\\program files (x86)\\gnu arm embedded toolchain\\10 2021.10\\arm-none-eabi\\include\\
 883              		.file 4 "c:\\program files (x86)\\gnu arm embedded toolchain\\10 2021.10\\arm-none-eabi\\include\\
 884              		.file 5 "c:\\program files (x86)\\gnu arm embedded toolchain\\10 2021.10\\arm-none-eabi\\include\\
 885              		.file 6 "c:\\program files (x86)\\gnu arm embedded toolchain\\10 2021.10\\arm-none-eabi\\include\\
 886              		.file 7 "c:\\program files (x86)\\gnu arm embedded toolchain\\10 2021.10\\arm-none-eabi\\include\\
 887              		.file 8 "c:\\program files (x86)\\gnu arm embedded toolchain\\10 2021.10\\arm-none-eabi\\include\\
ARM GAS  C:\Users\chian\AppData\Local\Temp\ccuaupTt.s 			page 19

